; Function Attrs: mustprogress uwtable
define void @_ZN8facebook5velox5cache14AsyncDataCache15possibleSsdSaveEm(ptr nocapture noundef nonnull align 8 dereferenceable(300) %this, i64 noundef %bytes) local_unnamed_addr #3 align 2 {
entry:
  %ssdCache_ = getelementptr inbounds i8, ptr %this, i64 16
  %0 = load ptr, ptr %ssdCache_, align 8
  %cmp.i.not.i = icmp eq ptr %0, null
  br i1 %cmp.i.not.i, label %if.end13, label %if.end

if.end:                                           ; preds = %entry
  %ssdSaveable_ = getelementptr inbounds i8, ptr %this, i64 88
  %1 = load i64, ptr %ssdSaveable_, align 8
  %add = add i64 %1, %bytes
  store i64 %add, ptr %ssdSaveable_, align 8
  %add.i = add i64 %add, 4095
  %div.i1 = lshr i64 %add.i, 12
  %cachedPages_ = getelementptr inbounds i8, ptr %this, i64 56
  %2 = load atomic i64, ptr %cachedPages_ seq_cst, align 8
  %div2 = lshr i64 %2, 3
  %conv = trunc i64 %div2 to i32
  %.sroa.speculated = tail call i32 @llvm.smax.i32(i32 %conv, i32 4096)
  %conv6 = zext nneg i32 %.sroa.speculated to i64
  %cmp = icmp ugt i64 %div.i1, %conv6
  br i1 %cmp, label %if.then7, label %if.end13

if.then7:                                         ; preds = %if.end
  %3 = load ptr, ptr %ssdCache_, align 8
  %call10 = tail call noundef zeroext i1 @_ZN8facebook5velox5cache8SsdCache10startWriteEv(ptr noundef nonnull align 8 dereferenceable(89) %3)
  br i1 %call10, label %if.end12, label %if.end13

if.end12:                                         ; preds = %if.then7
  tail call void @_ZN8facebook5velox5cache14AsyncDataCache9saveToSsdEv(ptr noundef nonnull align 8 dereferenceable(300) %this)
  br label %if.end13

if.end13:                                         ; preds = %if.then7, %entry, %if.end12, %if.end
  ret void
}